target datalayout = "e-m:e-p270:32:32-p271:32:32-p272:64:64-i64:64-i128:128-f80:128-n8:16:32:64-S128"
target triple = "x86_64-pc-linux-gnu"

%class.QString = type { %struct.QArrayDataPointer }
%struct.QArrayDataPointer = type { ptr, ptr, i64 }
%class.PreferencesDialog = type { %class.GeometryStateDialog, ptr, %class.QHash, %class.PrefsModel, %class.AdvancedPrefsModel, %class.AdvancedPrefDelegate, %class.ModulePrefsModel, i32, ptr, %class.QString }
%class.GeometryStateDialog = type { %class.QDialog, %class.QString }
%class.QDialog = type { %class.QWidget }
%class.QWidget = type { %class.QObject, %class.QPaintDevice.base, ptr }
%class.QObject = type { ptr, %class.QScopedPointer }
%class.QScopedPointer = type { ptr }
%class.QPaintDevice.base = type <{ ptr, i16 }>
%class.QHash = type { ptr }
%class.PrefsModel = type { %class.QAbstractItemModel, ptr }
%class.QAbstractItemModel = type { %class.QObject }
%class.AdvancedPrefsModel = type <{ %class.QSortFilterProxyModel, %class.QString, i8, i8, %class.QChar, [4 x i8] }>
%class.QSortFilterProxyModel = type { %class.QAbstractProxyModel }
%class.QAbstractProxyModel = type { %class.QAbstractItemModel }
%class.QChar = type { i16 }
%class.AdvancedPrefDelegate = type { %class.QStyledItemDelegate }
%class.QStyledItemDelegate = type { %class.QAbstractItemDelegate }
%class.QAbstractItemDelegate = type { %class.QObject }
%class.ModulePrefsModel = type { %class.QSortFilterProxyModel, %class.QString }

@.str.3 = private unnamed_addr constant [4 x i8] c"gui\00", align 1
@.str.4 = private unnamed_addr constant [15 x i8] c"debounce.timer\00", align 1

; Function Attrs: mustprogress uwtable
define void @_ZN17PreferencesDialog36on_advancedSearchLineEdit_textEditedERK7QString(ptr noundef nonnull align 8 dereferenceable(248) %0, ptr noundef nonnull align 8 dereferenceable(24) %1) #0 align 2 {
  %3 = alloca ptr, align 8
  %4 = alloca ptr, align 8
  %5 = alloca i32, align 4
  store ptr %0, ptr %3, align 8
  store ptr %1, ptr %4, align 8
  %6 = load ptr, ptr %3, align 8
  %7 = load ptr, ptr %4, align 8
  %8 = getelementptr inbounds %class.PreferencesDialog, ptr %6, i32 0, i32 9
  %9 = call noundef nonnull align 8 dereferenceable(24) ptr @_ZN7QStringaSERKS_(ptr noundef nonnull align 8 dereferenceable(24) %8, ptr noundef nonnull align 8 dereferenceable(24) %7) #16
  %10 = call i32 @prefs_get_uint_value(ptr noundef @.str.3, ptr noundef @.str.4)
  store i32 %10, ptr %5, align 4
  %11 = getelementptr inbounds %class.PreferencesDialog, ptr %6, i32 0, i32 8
  %12 = load ptr, ptr %11, align 8
  %13 = load i32, ptr %5, align 4
  call void @_ZN6QTimer5startEi(ptr noundef nonnull align 8 dereferenceable(16) %12, i32 noundef %13)
  ret void
}