; Function Attrs: mustprogress uwtable
define void @_ZN17PreferencesDialog36on_advancedSearchLineEdit_textEditedERK7QString(ptr noundef nonnull align 8 dereferenceable(248) %0, ptr noundef nonnull align 8 dereferenceable(24) %1) local_unnamed_addr #0 align 2 {
  %3 = getelementptr inbounds i8, ptr %0, i64 224
  %4 = tail call noundef nonnull align 8 dereferenceable(24) ptr @_ZN7QStringaSERKS_(ptr noundef nonnull align 8 dereferenceable(24) %3, ptr noundef nonnull align 8 dereferenceable(24) %1) #18
  %5 = tail call i32 @prefs_get_uint_value(ptr noundef nonnull @.str.3, ptr noundef nonnull @.str.4)
  %6 = getelementptr inbounds i8, ptr %0, i64 216
  %7 = load ptr, ptr %6, align 8
  tail call void @_ZN6QTimer5startEi(ptr noundef nonnull align 8 dereferenceable(16) %7, i32 noundef %5)
  ret void
}